target datalayout = "e-m:e-p270:32:32-p271:32:32-p272:64:64-i64:64-i128:128-f80:128-n8:16:32:64-S128"
target triple = "x86_64-unknown-linux-gnu"

%"class.sat::literal" = type { i32 }
%"class.sat::use_list" = type { %class.vector }
%class.vector = type { ptr }
%class.ptr_vector = type { %class.vector.0 }
%class.vector.0 = type { ptr }
%"class.sat::simplifier" = type { ptr, i32, %"class.sat::use_list", %"class.sat::ext_use_list", %"class.sat::clause_set", %class.svector.3, i32, %class.tracked_uint_set, i8, %"class.sat::tmp_clause", %class.svector.5, i32, i32, i8, i8, i8, i8, i32, i8, i8, i32, i8, i32, i8, i8, i32, i32, i32, i32, i32, i32, i32, i32, i32, i32, i8, i32, i8, i8, i32, i32, i32, i32, i32, i32, i32, i32, i32, i32, i32, i8, i32, %class.ptr_vector, %class.svector.7, %class.svector.9, %class.svector.9, %class.svector.7 }
%"class.sat::ext_use_list" = type { %class.vector.1 }
%class.vector.1 = type { ptr }
%"class.sat::clause_set" = type { %class.svector, %class.ptr_vector }
%class.svector = type { %class.vector.2 }
%class.vector.2 = type { ptr }
%class.svector.3 = type { %class.vector.4 }
%class.vector.4 = type { ptr }
%class.tracked_uint_set = type { %class.svector.5, %class.svector }
%"class.sat::tmp_clause" = type { ptr }
%class.svector.5 = type { %class.vector.6 }
%class.vector.6 = type { ptr }
%class.svector.9 = type { %class.vector.10 }
%class.vector.10 = type { ptr }
%class.svector.7 = type { %class.vector.8 }
%class.vector.8 = type { ptr }

; Function Attrs: mustprogress nounwind uwtable
define linkonce_odr hidden noundef ptr @_ZNK3sat10tmp_clause3getEv(ptr noundef nonnull align 8 dereferenceable(8) %this) #4 comdat align 2 {
entry:
  %this.addr = alloca ptr, align 8
  store ptr %this, ptr %this.addr, align 8
  %this1 = load ptr, ptr %this.addr, align 8
  %m_clause = getelementptr inbounds %"class.sat::tmp_clause", ptr %this1, i32 0, i32 0
  %0 = load ptr, ptr %m_clause, align 8
  ret ptr %0
}

; Function Attrs: mustprogress uwtable
define linkonce_odr hidden void @_ZN3sat10tmp_clause3setENS_7literalES1_b(ptr noundef nonnull align 8 dereferenceable(8) %this, i32 %l1.coerce, i32 %l2.coerce, i1 noundef zeroext %learned) #5 comdat align 2 {
entry:
  %l1 = alloca %"class.sat::literal", align 4
  %l2 = alloca %"class.sat::literal", align 4
  %this.addr = alloca ptr, align 8
  %learned.addr = alloca i8, align 1
  %ls = alloca [2 x %"class.sat::literal"], align 4
  %coerce.dive = getelementptr inbounds %"class.sat::literal", ptr %l1, i32 0, i32 0
  store i32 %l1.coerce, ptr %coerce.dive, align 4
  %coerce.dive1 = getelementptr inbounds %"class.sat::literal", ptr %l2, i32 0, i32 0
  store i32 %l2.coerce, ptr %coerce.dive1, align 4
  store ptr %this, ptr %this.addr, align 8
  %frombool = zext i1 %learned to i8
  store i8 %frombool, ptr %learned.addr, align 1
  %this2 = load ptr, ptr %this.addr, align 8
  %arrayinit.begin = getelementptr inbounds [2 x %"class.sat::literal"], ptr %ls, i64 0, i64 0
  call void @llvm.memcpy.p0.p0.i64(ptr align 4 %arrayinit.begin, ptr align 4 %l1, i64 4, i1 false)
  %arrayinit.element = getelementptr inbounds %"class.sat::literal", ptr %arrayinit.begin, i64 1
  call void @llvm.memcpy.p0.p0.i64(ptr align 4 %arrayinit.element, ptr align 4 %l2, i64 4, i1 false)
  %arraydecay = getelementptr inbounds [2 x %"class.sat::literal"], ptr %ls, i64 0, i64 0
  %0 = load i8, ptr %learned.addr, align 1
  %tobool = trunc i8 %0 to i1
  call void @_ZN3sat10tmp_clause3setEjPKNS_7literalEb(ptr noundef nonnull align 8 dereferenceable(8) %this2, i32 noundef 2, ptr noundef %arraydecay, i1 noundef zeroext %tobool)
  ret void
}

; Function Attrs: mustprogress uwtable
define hidden void @_ZN3sat10simplifier17back_subsumption1ENS_7literalES1_b(ptr noundef nonnull align 8 dereferenceable(288) %this, i32 %l1.coerce, i32 %l2.coerce, i1 noundef zeroext %learned) #5 align 2 {
entry:
  %l1 = alloca %"class.sat::literal", align 4
  %l2 = alloca %"class.sat::literal", align 4
  %this.addr = alloca ptr, align 8
  %learned.addr = alloca i8, align 1
  %agg.tmp = alloca %"class.sat::literal", align 4
  %agg.tmp3 = alloca %"class.sat::literal", align 4
  %c = alloca ptr, align 8
  %coerce.dive = getelementptr inbounds %"class.sat::literal", ptr %l1, i32 0, i32 0
  store i32 %l1.coerce, ptr %coerce.dive, align 4
  %coerce.dive1 = getelementptr inbounds %"class.sat::literal", ptr %l2, i32 0, i32 0
  store i32 %l2.coerce, ptr %coerce.dive1, align 4
  store ptr %this, ptr %this.addr, align 8
  %frombool = zext i1 %learned to i8
  store i8 %frombool, ptr %learned.addr, align 1
  %this2 = load ptr, ptr %this.addr, align 8
  %m_dummy = getelementptr inbounds %"class.sat::simplifier", ptr %this2, i32 0, i32 9
  call void @llvm.memcpy.p0.p0.i64(ptr align 4 %agg.tmp, ptr align 4 %l1, i64 4, i1 false)
  call void @llvm.memcpy.p0.p0.i64(ptr align 4 %agg.tmp3, ptr align 4 %l2, i64 4, i1 false)
  %0 = load i8, ptr %learned.addr, align 1
  %tobool = trunc i8 %0 to i1
  %coerce.dive4 = getelementptr inbounds %"class.sat::literal", ptr %agg.tmp, i32 0, i32 0
  %1 = load i32, ptr %coerce.dive4, align 4
  %coerce.dive5 = getelementptr inbounds %"class.sat::literal", ptr %agg.tmp3, i32 0, i32 0
  %2 = load i32, ptr %coerce.dive5, align 4
  call void @_ZN3sat10tmp_clause3setENS_7literalES1_b(ptr noundef nonnull align 8 dereferenceable(8) %m_dummy, i32 %1, i32 %2, i1 noundef zeroext %tobool)
  %m_dummy6 = getelementptr inbounds %"class.sat::simplifier", ptr %this2, i32 0, i32 9
  %call = call noundef ptr @_ZNK3sat10tmp_clause3getEv(ptr noundef nonnull align 8 dereferenceable(8) %m_dummy6)
  store ptr %call, ptr %c, align 8
  %3 = load ptr, ptr %c, align 8
  call void @_ZN3sat10simplifier17back_subsumption1ERNS_6clauseE(ptr noundef nonnull align 8 dereferenceable(288) %this2, ptr noundef nonnull align 4 dereferenceable(20) %3)
  ret void
}