; Function Attrs: mustprogress uwtable
define hidden void @_ZN3sat10simplifier17back_subsumption1ENS_7literalES1_b(ptr noundef nonnull align 8 dereferenceable(288) %this, i32 %l1.coerce, i32 %l2.coerce, i1 noundef zeroext %learned) local_unnamed_addr #3 align 2 {
entry:
  %ls.i = alloca [2 x %"class.sat::literal"], align 4
  %m_dummy = getelementptr inbounds i8, ptr %this, i64 88
  call void @llvm.lifetime.start.p0(i64 8, ptr nonnull %ls.i)
  store i32 %l1.coerce, ptr %ls.i, align 4
  %arrayinit.element.i = getelementptr inbounds i8, ptr %ls.i, i64 4
  store i32 %l2.coerce, ptr %arrayinit.element.i, align 4
  call void @_ZN3sat10tmp_clause3setEjPKNS_7literalEb(ptr noundef nonnull align 8 dereferenceable(8) %m_dummy, i32 noundef 2, ptr noundef nonnull %ls.i, i1 noundef zeroext %learned)
  call void @llvm.lifetime.end.p0(i64 8, ptr nonnull %ls.i)
  %0 = load ptr, ptr %m_dummy, align 8
  call void @_ZN3sat10simplifier17back_subsumption1ERNS_6clauseE(ptr noundef nonnull align 8 dereferenceable(288) %this, ptr noundef nonnull align 4 dereferenceable(20) %0)
  ret void
}